; Function Attrs: null_pointer_is_valid sspstrong uwtable
define internal fastcc i32 @dissect_kafka_renew_delegation_token_response(ptr noundef %0, ptr noundef %1, ptr noundef %2, i32 noundef %3, i16 noundef signext %4) unnamed_addr #0 {
  %6 = tail call zeroext i16 @tvb_get_ntohs(ptr noundef %0, i32 noundef %3)
  %7 = load i32, ptr @hf_kafka_error, align 4
  %8 = tail call ptr @proto_tree_add_item(ptr noundef %2, i32 noundef %7, ptr noundef %0, i32 noundef %3, i32 noundef 2, i32 noundef 0)
  %.not.i.i = icmp eq i16 %6, 0
  br i1 %.not.i.i, label %dissect_kafka_error.exit, label %9

9:                                                ; preds = %5
  %10 = getelementptr inbounds nuw i8, ptr %1, i64 8
  %11 = load ptr, ptr %10, align 8
  %12 = sext i16 %6 to i32
  %13 = tail call ptr @val_to_str(i32 noundef %12, ptr noundef nonnull @kafka_errors, ptr noundef nonnull @.str.628)
  tail call void (ptr, i32, ptr, ...) @col_append_fstr(ptr noundef %11, i32 noundef 25, ptr noundef nonnull @.str.742, ptr noundef %13)
  br label %dissect_kafka_error.exit

dissect_kafka_error.exit:                         ; preds = %5, %9
  %14 = add i32 %3, 2
  %15 = load i32, ptr @hf_kafka_token_expiry_timestamp, align 4
  %16 = tail call ptr @proto_tree_add_item(ptr noundef %2, i32 noundef %15, ptr noundef %0, i32 noundef %14, i32 noundef 8, i32 noundef 20)
  %17 = add i32 %3, 10
  %18 = load i32, ptr @hf_kafka_throttle_time, align 4
  %19 = tail call ptr @proto_tree_add_item(ptr noundef %2, i32 noundef %18, ptr noundef %0, i32 noundef %17, i32 noundef 4, i32 noundef 0)
  %20 = add i32 %3, 14
  %21 = icmp sgt i16 %4, 1
  br i1 %21, label %22, label %24

22:                                               ; preds = %dissect_kafka_error.exit
  %23 = tail call fastcc i32 @dissect_kafka_tagged_fields(ptr noundef %0, ptr noundef %1, ptr noundef %2, i32 noundef %20)
  br label %24

24:                                               ; preds = %22, %dissect_kafka_error.exit
  %.0 = phi i32 [ %23, %22 ], [ %20, %dissect_kafka_error.exit ]
  ret i32 %.0
}